target datalayout = "e-m:e-p270:32:32-p271:32:32-p272:64:64-i64:64-i128:128-f80:128-n8:16:32:64-S128"
target triple = "x86_64-pc-linux-gnu"

@max_alloc_size = internal global i64 2147483647, align 8

; Function Attrs: nounwind uwtable
define ptr @av_realloc(ptr noundef %0, i64 noundef %1) #0 {
  %3 = alloca ptr, align 8
  %4 = alloca ptr, align 8
  %5 = alloca i64, align 8
  %6 = alloca ptr, align 8
  %7 = alloca i64, align 8
  %8 = alloca i32, align 4
  store ptr %0, ptr %4, align 8, !tbaa !8
  store i64 %1, ptr %5, align 8, !tbaa !4
  call void @llvm.lifetime.start.p0(i64 8, ptr %6) #11
  %9 = load i64, ptr %5, align 8, !tbaa !4
  %10 = load atomic i64, ptr @max_alloc_size monotonic, align 8
  store i64 %10, ptr %7, align 8
  %11 = load i64, ptr %7, align 8, !tbaa !4
  %12 = icmp ugt i64 %9, %11
  br i1 %12, label %13, label %14

13:                                               ; preds = %2
  store ptr null, ptr %3, align 8
  store i32 1, ptr %8, align 4
  br label %25

14:                                               ; preds = %2
  %15 = load ptr, ptr %4, align 8, !tbaa !8
  %16 = load i64, ptr %5, align 8, !tbaa !4
  %17 = load i64, ptr %5, align 8, !tbaa !4
  %18 = icmp ne i64 %17, 0
  %19 = xor i1 %18, true
  %20 = zext i1 %19 to i32
  %21 = sext i32 %20 to i64
  %22 = add i64 %16, %21
  %23 = call ptr @realloc(ptr noundef %15, i64 noundef %22) #12
  store ptr %23, ptr %6, align 8, !tbaa !8
  %24 = load ptr, ptr %6, align 8, !tbaa !8
  store ptr %24, ptr %3, align 8
  store i32 1, ptr %8, align 4
  br label %25

25:                                               ; preds = %14, %13
  call void @llvm.lifetime.end.p0(i64 8, ptr %6) #11
  %26 = load ptr, ptr %3, align 8
  ret ptr %26
}

; Function Attrs: nounwind uwtable
define ptr @av_fast_realloc(ptr noundef %0, ptr noundef %1, i64 noundef %2) #0 {
  %4 = alloca ptr, align 8
  %5 = alloca ptr, align 8
  %6 = alloca ptr, align 8
  %7 = alloca i64, align 8
  %8 = alloca i64, align 8
  %9 = alloca i32, align 4
  %10 = alloca i64, align 8
  store ptr %0, ptr %5, align 8, !tbaa !8
  store ptr %1, ptr %6, align 8, !tbaa !15
  store i64 %2, ptr %7, align 8, !tbaa !4
  call void @llvm.lifetime.start.p0(i64 8, ptr %8) #11
  %11 = load i64, ptr %7, align 8, !tbaa !4
  %12 = load ptr, ptr %6, align 8, !tbaa !15
  %13 = load i32, ptr %12, align 4, !tbaa !17
  %14 = zext i32 %13 to i64
  %15 = icmp ule i64 %11, %14
  br i1 %15, label %16, label %18

16:                                               ; preds = %3
  %17 = load ptr, ptr %5, align 8, !tbaa !8
  store ptr %17, ptr %4, align 8
  store i32 1, ptr %9, align 4
  br label %86

18:                                               ; preds = %3
  %19 = load atomic i64, ptr @max_alloc_size monotonic, align 8
  store i64 %19, ptr %10, align 8
  %20 = load i64, ptr %10, align 8, !tbaa !4
  store i64 %20, ptr %8, align 8, !tbaa !4
  %21 = load i64, ptr %8, align 8, !tbaa !4
  %22 = icmp ugt i64 %21, 4294967295
  br i1 %22, label %23, label %24

23:                                               ; preds = %18
  br label %26

24:                                               ; preds = %18
  %25 = load i64, ptr %8, align 8, !tbaa !4
  br label %26

26:                                               ; preds = %24, %23
  %27 = phi i64 [ 4294967295, %23 ], [ %25, %24 ]
  store i64 %27, ptr %8, align 8, !tbaa !4
  %28 = load i64, ptr %7, align 8, !tbaa !4
  %29 = load i64, ptr %8, align 8, !tbaa !4
  %30 = icmp ugt i64 %28, %29
  br i1 %30, label %31, label %33

31:                                               ; preds = %26
  %32 = load ptr, ptr %6, align 8, !tbaa !15
  store i32 0, ptr %32, align 4, !tbaa !17
  store ptr null, ptr %4, align 8
  store i32 1, ptr %9, align 4
  br label %86

33:                                               ; preds = %26
  %34 = load i64, ptr %8, align 8, !tbaa !4
  %35 = load i64, ptr %7, align 8, !tbaa !4
  %36 = load i64, ptr %7, align 8, !tbaa !4
  %37 = udiv i64 %36, 16
  %38 = add i64 %35, %37
  %39 = add i64 %38, 32
  %40 = load i64, ptr %7, align 8, !tbaa !4
  %41 = icmp ugt i64 %39, %40
  br i1 %41, label %42, label %48

42:                                               ; preds = %33
  %43 = load i64, ptr %7, align 8, !tbaa !4
  %44 = load i64, ptr %7, align 8, !tbaa !4
  %45 = udiv i64 %44, 16
  %46 = add i64 %43, %45
  %47 = add i64 %46, 32
  br label %50

48:                                               ; preds = %33
  %49 = load i64, ptr %7, align 8, !tbaa !4
  br label %50

50:                                               ; preds = %48, %42
  %51 = phi i64 [ %47, %42 ], [ %49, %48 ]
  %52 = icmp ugt i64 %34, %51
  br i1 %52, label %53, label %71

53:                                               ; preds = %50
  %54 = load i64, ptr %7, align 8, !tbaa !4
  %55 = load i64, ptr %7, align 8, !tbaa !4
  %56 = udiv i64 %55, 16
  %57 = add i64 %54, %56
  %58 = add i64 %57, 32
  %59 = load i64, ptr %7, align 8, !tbaa !4
  %60 = icmp ugt i64 %58, %59
  br i1 %60, label %61, label %67

61:                                               ; preds = %53
  %62 = load i64, ptr %7, align 8, !tbaa !4
  %63 = load i64, ptr %7, align 8, !tbaa !4
  %64 = udiv i64 %63, 16
  %65 = add i64 %62, %64
  %66 = add i64 %65, 32
  br label %69

67:                                               ; preds = %53
  %68 = load i64, ptr %7, align 8, !tbaa !4
  br label %69

69:                                               ; preds = %67, %61
  %70 = phi i64 [ %66, %61 ], [ %68, %67 ]
  br label %73

71:                                               ; preds = %50
  %72 = load i64, ptr %8, align 8, !tbaa !4
  br label %73

73:                                               ; preds = %71, %69
  %74 = phi i64 [ %70, %69 ], [ %72, %71 ]
  store i64 %74, ptr %7, align 8, !tbaa !4
  %75 = load ptr, ptr %5, align 8, !tbaa !8
  %76 = load i64, ptr %7, align 8, !tbaa !4
  %77 = call ptr @av_realloc(ptr noundef %75, i64 noundef %76)
  store ptr %77, ptr %5, align 8, !tbaa !8
  %78 = load ptr, ptr %5, align 8, !tbaa !8
  %79 = icmp ne ptr %78, null
  br i1 %79, label %81, label %80

80:                                               ; preds = %73
  store i64 0, ptr %7, align 8, !tbaa !4
  br label %81

81:                                               ; preds = %80, %73
  %82 = load i64, ptr %7, align 8, !tbaa !4
  %83 = trunc i64 %82 to i32
  %84 = load ptr, ptr %6, align 8, !tbaa !15
  store i32 %83, ptr %84, align 4, !tbaa !17
  %85 = load ptr, ptr %5, align 8, !tbaa !8
  store ptr %85, ptr %4, align 8
  store i32 1, ptr %9, align 4
  br label %86

86:                                               ; preds = %81, %31, %16
  call void @llvm.lifetime.end.p0(i64 8, ptr %8) #11
  %87 = load ptr, ptr %4, align 8
  ret ptr %87
}