; Function Attrs: mustprogress nounwind willreturn uwtable
define noundef ptr @av_fast_realloc(ptr noundef captures(ret: address, provenance) %0, ptr noundef captures(none) %1, i64 noundef %2) local_unnamed_addr #4 {
  %4 = load i32, ptr %1, align 4, !tbaa !9
  %5 = zext i32 %4 to i64
  %.not = icmp ugt i64 %2, %5
  br i1 %.not, label %6, label %21

6:                                                ; preds = %3
  %7 = load atomic i64, ptr @max_alloc_size monotonic, align 8
  %8 = tail call i64 @llvm.umin.i64(i64 %7, i64 4294967295)
  %9 = icmp ugt i64 %2, %8
  br i1 %9, label %.sink.split, label %10

10:                                               ; preds = %6
  %11 = lshr i64 %2, 4
  %12 = add nuw nsw i64 %2, 32
  %13 = add nuw nsw i64 %12, %11
  %. = tail call i64 @llvm.umax.i64(i64 %13, i64 %2)
  %14 = tail call i64 @llvm.umin.i64(i64 %8, i64 %.)
  %15 = load atomic i64, ptr @max_alloc_size monotonic, align 8
  %16 = icmp ugt i64 %14, %15
  br i1 %16, label %av_realloc.exit, label %17

17:                                               ; preds = %10
  %18 = tail call ptr @realloc(ptr noundef %0, i64 noundef %14) #22
  br label %av_realloc.exit

av_realloc.exit:                                  ; preds = %10, %17
  %.0.i = phi ptr [ %18, %17 ], [ null, %10 ]
  %.not33 = icmp eq ptr %.0.i, null
  %19 = trunc nuw i64 %14 to i32
  %20 = select i1 %.not33, i32 0, i32 %19
  br label %.sink.split

.sink.split:                                      ; preds = %6, %av_realloc.exit
  %.sink = phi i32 [ %20, %av_realloc.exit ], [ 0, %6 ]
  %.0.ph = phi ptr [ %.0.i, %av_realloc.exit ], [ null, %6 ]
  store i32 %.sink, ptr %1, align 4, !tbaa !9
  br label %21

21:                                               ; preds = %.sink.split, %3
  %.0 = phi ptr [ %0, %3 ], [ %.0.ph, %.sink.split ]
  ret ptr %.0
}